target datalayout = "e-m:e-p270:32:32-p271:32:32-p272:64:64-i64:64-i128:128-f80:128-n8:16:32:64-S128"
target triple = "x86_64-pc-linux-gnu"

%"struct.rocksdb::DBImpl::BGJobLimits" = type { i32, i32 }

; Function Attrs: inlinehint mustprogress nounwind uwtable
define linkonce_odr noundef nonnull align 4 dereferenceable(4) ptr @_ZSt3maxIiERKT_S2_S2_(ptr noundef nonnull align 4 dereferenceable(4) %0, ptr noundef nonnull align 4 dereferenceable(4) %1) #1 comdat {
  %3 = alloca ptr, align 8
  %4 = alloca ptr, align 8
  %5 = alloca ptr, align 8
  store ptr %0, ptr %4, align 8, !tbaa !1307
  store ptr %1, ptr %5, align 8, !tbaa !1307
  %6 = load ptr, ptr %4, align 8, !tbaa !1307
  %7 = load i32, ptr %6, align 4, !tbaa !448
  %8 = load ptr, ptr %5, align 8, !tbaa !1307
  %9 = load i32, ptr %8, align 4, !tbaa !448
  %10 = icmp slt i32 %7, %9
  br i1 %10, label %11, label %13

11:                                               ; preds = %2
  %12 = load ptr, ptr %5, align 8, !tbaa !1307
  store ptr %12, ptr %3, align 8
  br label %15

13:                                               ; preds = %2
  %14 = load ptr, ptr %4, align 8, !tbaa !1307
  store ptr %14, ptr %3, align 8
  br label %15

15:                                               ; preds = %13, %11
  %16 = load ptr, ptr %3, align 8
  ret ptr %16
}

; Function Attrs: mustprogress uwtable
define i64 @_ZN7rocksdb6DBImpl14GetBGJobLimitsEiiib(i32 noundef %0, i32 noundef %1, i32 noundef %2, i1 noundef zeroext %3) #6 align 2 {
  %5 = alloca %"struct.rocksdb::DBImpl::BGJobLimits", align 4
  %6 = alloca i32, align 4
  %7 = alloca i32, align 4
  %8 = alloca i32, align 4
  %9 = alloca i8, align 1
  %10 = alloca i32, align 4
  %11 = alloca i32, align 4
  %12 = alloca i32, align 4
  %13 = alloca i32, align 4
  %14 = alloca i32, align 4
  %15 = alloca i32, align 4
  store i32 %0, ptr %6, align 4, !tbaa !448
  store i32 %1, ptr %7, align 4, !tbaa !448
  store i32 %2, ptr %8, align 4, !tbaa !448
  %16 = zext i1 %3 to i8
  store i8 %16, ptr %9, align 1, !tbaa !62
  %17 = load i32, ptr %6, align 4, !tbaa !448
  %18 = icmp eq i32 %17, -1
  br i1 %18, label %19, label %35

19:                                               ; preds = %4
  %20 = load i32, ptr %7, align 4, !tbaa !448
  %21 = icmp eq i32 %20, -1
  br i1 %21, label %22, label %35

22:                                               ; preds = %19
  call void @llvm.lifetime.start.p0(i64 4, ptr %10) #5
  store i32 1, ptr %10, align 4, !tbaa !448
  call void @llvm.lifetime.start.p0(i64 4, ptr %11) #5
  %23 = load i32, ptr %8, align 4, !tbaa !448
  %24 = sdiv i32 %23, 4
  store i32 %24, ptr %11, align 4, !tbaa !448
  %25 = call noundef nonnull align 4 dereferenceable(4) ptr @_ZSt3maxIiERKT_S2_S2_(ptr noundef nonnull align 4 dereferenceable(4) %10, ptr noundef nonnull align 4 dereferenceable(4) %11)
  %26 = load i32, ptr %25, align 4, !tbaa !448
  %27 = getelementptr inbounds nuw %"struct.rocksdb::DBImpl::BGJobLimits", ptr %5, i32 0, i32 0
  store i32 %26, ptr %27, align 4, !tbaa !1376
  call void @llvm.lifetime.end.p0(i64 4, ptr %11) #5
  call void @llvm.lifetime.end.p0(i64 4, ptr %10) #5
  call void @llvm.lifetime.start.p0(i64 4, ptr %12) #5
  store i32 1, ptr %12, align 4, !tbaa !448
  call void @llvm.lifetime.start.p0(i64 4, ptr %13) #5
  %28 = load i32, ptr %8, align 4, !tbaa !448
  %29 = getelementptr inbounds nuw %"struct.rocksdb::DBImpl::BGJobLimits", ptr %5, i32 0, i32 0
  %30 = load i32, ptr %29, align 4, !tbaa !1376
  %31 = sub nsw i32 %28, %30
  store i32 %31, ptr %13, align 4, !tbaa !448
  %32 = call noundef nonnull align 4 dereferenceable(4) ptr @_ZSt3maxIiERKT_S2_S2_(ptr noundef nonnull align 4 dereferenceable(4) %12, ptr noundef nonnull align 4 dereferenceable(4) %13)
  %33 = load i32, ptr %32, align 4, !tbaa !448
  %34 = getelementptr inbounds nuw %"struct.rocksdb::DBImpl::BGJobLimits", ptr %5, i32 0, i32 1
  store i32 %33, ptr %34, align 4, !tbaa !1386
  call void @llvm.lifetime.end.p0(i64 4, ptr %13) #5
  call void @llvm.lifetime.end.p0(i64 4, ptr %12) #5
  br label %42

35:                                               ; preds = %19, %4
  call void @llvm.lifetime.start.p0(i64 4, ptr %14) #5
  store i32 1, ptr %14, align 4, !tbaa !448
  %36 = call noundef nonnull align 4 dereferenceable(4) ptr @_ZSt3maxIiERKT_S2_S2_(ptr noundef nonnull align 4 dereferenceable(4) %14, ptr noundef nonnull align 4 dereferenceable(4) %6)
  %37 = load i32, ptr %36, align 4, !tbaa !448
  %38 = getelementptr inbounds nuw %"struct.rocksdb::DBImpl::BGJobLimits", ptr %5, i32 0, i32 0
  store i32 %37, ptr %38, align 4, !tbaa !1376
  call void @llvm.lifetime.end.p0(i64 4, ptr %14) #5
  call void @llvm.lifetime.start.p0(i64 4, ptr %15) #5
  store i32 1, ptr %15, align 4, !tbaa !448
  %39 = call noundef nonnull align 4 dereferenceable(4) ptr @_ZSt3maxIiERKT_S2_S2_(ptr noundef nonnull align 4 dereferenceable(4) %15, ptr noundef nonnull align 4 dereferenceable(4) %7)
  %40 = load i32, ptr %39, align 4, !tbaa !448
  %41 = getelementptr inbounds nuw %"struct.rocksdb::DBImpl::BGJobLimits", ptr %5, i32 0, i32 1
  store i32 %40, ptr %41, align 4, !tbaa !1386
  call void @llvm.lifetime.end.p0(i64 4, ptr %15) #5
  br label %42

42:                                               ; preds = %35, %22
  %43 = load i8, ptr %9, align 1, !tbaa !62, !range !66, !noundef !67
  %44 = trunc i8 %43 to i1
  br i1 %44, label %47, label %45

45:                                               ; preds = %42
  %46 = getelementptr inbounds nuw %"struct.rocksdb::DBImpl::BGJobLimits", ptr %5, i32 0, i32 1
  store i32 1, ptr %46, align 4, !tbaa !1386
  br label %47

47:                                               ; preds = %45, %42
  %48 = load i64, ptr %5, align 4
  ret i64 %48
}