; Function Attrs: mustprogress nofree norecurse nosync nounwind willreturn memory(none) uwtable
define range(i64 4294967296, 9223372034707292160) i64 @_ZN7rocksdb6DBImpl14GetBGJobLimitsEiiib(i32 noundef %0, i32 noundef %1, i32 noundef %2, i1 noundef zeroext %3) local_unnamed_addr #13 align 2 {
  %5 = and i32 %1, %0
  %or.cond = icmp eq i32 %5, -1
  br i1 %or.cond, label %6, label %9

6:                                                ; preds = %4
  %7 = sdiv i32 %2, 4
  %.sroa.speculated20 = tail call i32 @llvm.smax.i32(i32 %7, i32 1)
  %8 = sub nsw i32 %2, %.sroa.speculated20
  br label %10

9:                                                ; preds = %4
  %.sroa.speculated10 = tail call i32 @llvm.smax.i32(i32 %0, i32 1)
  br label %10

10:                                               ; preds = %9, %6
  %.sink = phi i32 [ %1, %9 ], [ %8, %6 ]
  %.sroa.0.0 = phi i32 [ %.sroa.speculated10, %9 ], [ %.sroa.speculated20, %6 ]
  %.sroa.speculated = tail call i32 @llvm.smax.i32(i32 %.sink, i32 1)
  %11 = zext nneg i32 %.sroa.speculated to i64
  %12 = shl nuw nsw i64 %11, 32
  %.sroa.4.0.insert.shift = select i1 %3, i64 %12, i64 4294967296
  %.sroa.0.0.insert.ext = zext nneg i32 %.sroa.0.0 to i64
  %.sroa.0.0.insert.insert = or disjoint i64 %.sroa.4.0.insert.shift, %.sroa.0.0.insert.ext
  ret i64 %.sroa.0.0.insert.insert
}